target datalayout = "e-m:e-p270:32:32-p271:32:32-p272:64:64-i64:64-i128:128-f80:128-n8:16:32:64-S128"
target triple = "x86_64-pc-linux-gnu"

%struct.expert_field = type { i32, i32 }

@hf_ldp_tlv_fr_label_len = internal global i32 0, align 4
@hf_ldp_tlv_fr_label_dlci = internal global i32 0, align 4
@ett_ldp_tlv_val = internal global i32 0, align 4
@ei_ldp_tlv_fec_len = internal global %struct.expert_field zeroinitializer, align 4
@.str.689 = private unnamed_addr constant [18 x i8] c"Frame Relay Label\00", align 1
@.str.1038 = private unnamed_addr constant [66 x i8] c"Error processing Frame Relay Label TLV: length is %d, should be 4\00", align 1
@.str.1039 = private unnamed_addr constant [8 x i8] c"%s (%u)\00", align 1
@.str.1040 = private unnamed_addr constant [15 x i8] c"Unknown Length\00", align 1

; Function Attrs: null_pointer_is_valid sspstrong uwtable
define internal void @dissect_tlv_frame_label(ptr noundef %0, ptr noundef %1, i32 noundef %2, ptr noundef %3, i32 noundef %4) #0 {
  %6 = alloca ptr, align 8
  %7 = alloca ptr, align 8
  %8 = alloca i32, align 4
  %9 = alloca ptr, align 8
  %10 = alloca i32, align 4
  %11 = alloca ptr, align 8
  %12 = alloca i8, align 1
  %13 = alloca i32, align 4
  store ptr %0, ptr %6, align 8
  store ptr %1, ptr %7, align 8
  store i32 %2, ptr %8, align 4
  store ptr %3, ptr %9, align 8
  store i32 %4, ptr %10, align 4
  call void @llvm.lifetime.start.p0(i64 8, ptr %11) #7
  call void @llvm.lifetime.start.p0(i64 1, ptr %12) #7
  %14 = load i32, ptr %10, align 4
  %15 = icmp ne i32 %14, 4
  br i1 %15, label %16, label %24

16:                                               ; preds = %5
  %17 = load ptr, ptr %9, align 8
  %18 = load ptr, ptr %7, align 8
  %19 = load ptr, ptr %6, align 8
  %20 = load i32, ptr %8, align 4
  %21 = load i32, ptr %10, align 4
  %22 = load i32, ptr %10, align 4
  %23 = call ptr (ptr, ptr, ptr, ptr, i32, i32, ptr, ...) @proto_tree_add_expert_format(ptr noundef %17, ptr noundef %18, ptr noundef @ei_ldp_tlv_fec_len, ptr noundef %19, i32 noundef %20, i32 noundef %21, ptr noundef @.str.1038, i32 noundef %22)
  store i32 1, ptr %13, align 4
  br label %58

24:                                               ; preds = %5
  %25 = load ptr, ptr %9, align 8
  %26 = load ptr, ptr %6, align 8
  %27 = load i32, ptr %8, align 4
  %28 = load i32, ptr %10, align 4
  %29 = load i32, ptr @ett_ldp_tlv_val, align 4
  %30 = call ptr @proto_tree_add_subtree(ptr noundef %25, ptr noundef %26, i32 noundef %27, i32 noundef %28, i32 noundef %29, ptr noundef null, ptr noundef @.str.689)
  store ptr %30, ptr %11, align 8
  %31 = load ptr, ptr %6, align 8
  %32 = load i32, ptr %8, align 4
  %33 = call zeroext i16 @tvb_get_ntohs(ptr noundef %31, i32 noundef %32)
  %34 = zext i16 %33 to i32
  %35 = ashr i32 %34, 7
  %36 = trunc i32 %35 to i8
  %37 = zext i8 %36 to i32
  %38 = and i32 %37, 3
  %39 = trunc i32 %38 to i8
  store i8 %39, ptr %12, align 1
  %40 = load ptr, ptr %11, align 8
  %41 = load i32, ptr @hf_ldp_tlv_fr_label_len, align 4
  %42 = load ptr, ptr %6, align 8
  %43 = load i32, ptr %8, align 4
  %44 = load i8, ptr %12, align 1
  %45 = zext i8 %44 to i32
  %46 = load i8, ptr %12, align 1
  %47 = zext i8 %46 to i32
  %48 = call ptr @val_to_str_const(i32 noundef %47, ptr noundef @tlv_fr_len_vals, ptr noundef @.str.1040)
  %49 = load i8, ptr %12, align 1
  %50 = zext i8 %49 to i32
  %51 = call ptr (ptr, i32, ptr, i32, i32, i32, ptr, ...) @proto_tree_add_uint_format_value(ptr noundef %40, i32 noundef %41, ptr noundef %42, i32 noundef %43, i32 noundef 2, i32 noundef %45, ptr noundef @.str.1039, ptr noundef %48, i32 noundef %50)
  %52 = load ptr, ptr %11, align 8
  %53 = load i32, ptr @hf_ldp_tlv_fr_label_dlci, align 4
  %54 = load ptr, ptr %6, align 8
  %55 = load i32, ptr %8, align 4
  %56 = add i32 %55, 1
  %57 = call ptr @proto_tree_add_item(ptr noundef %52, i32 noundef %53, ptr noundef %54, i32 noundef %56, i32 noundef 3, i32 noundef 0)
  store i32 0, ptr %13, align 4
  br label %58

58:                                               ; preds = %24, %16
  call void @llvm.lifetime.end.p0(i64 1, ptr %12) #7
  call void @llvm.lifetime.end.p0(i64 8, ptr %11) #7
  %59 = load i32, ptr %13, align 4
  switch i32 %59, label %61 [
    i32 0, label %60
    i32 1, label %60
  ]

60:                                               ; preds = %58, %58
  ret void

61:                                               ; preds = %58
  unreachable
}