; Function Attrs: null_pointer_is_valid sspstrong uwtable
define internal fastcc void @dissect_tlv_frame_label(ptr noundef %0, ptr noundef %1, i32 noundef %2, ptr noundef %3, i32 noundef range(i32 0, 2147483644) %4) unnamed_addr #0 {
  %.not = icmp eq i32 %4, 4
  br i1 %.not, label %8, label %6

6:                                                ; preds = %5
  %7 = tail call ptr (ptr, ptr, ptr, ptr, i32, i32, ptr, ...) @proto_tree_add_expert_format(ptr noundef %3, ptr noundef %1, ptr noundef nonnull @ei_ldp_tlv_fec_len, ptr noundef %0, i32 noundef %2, i32 noundef %4, ptr noundef nonnull @.str.1038, i32 noundef %4)
  br label %21

8:                                                ; preds = %5
  %9 = load i32, ptr @ett_ldp_tlv_val, align 4
  %10 = tail call ptr @proto_tree_add_subtree(ptr noundef %3, ptr noundef %0, i32 noundef %2, i32 noundef 4, i32 noundef %9, ptr noundef null, ptr noundef nonnull @.str.689)
  %11 = tail call zeroext i16 @tvb_get_ntohs(ptr noundef %0, i32 noundef %2)
  %12 = lshr i16 %11, 7
  %13 = and i16 %12, 3
  %14 = zext nneg i16 %13 to i32
  %15 = load i32, ptr @hf_ldp_tlv_fr_label_len, align 4
  %16 = tail call ptr @val_to_str_const(i32 noundef %14, ptr noundef nonnull @tlv_fr_len_vals, ptr noundef nonnull @.str.1040)
  %17 = tail call ptr (ptr, i32, ptr, i32, i32, i32, ptr, ...) @proto_tree_add_uint_format_value(ptr noundef %10, i32 noundef %15, ptr noundef %0, i32 noundef %2, i32 noundef 2, i32 noundef %14, ptr noundef nonnull @.str.1039, ptr noundef %16, i32 noundef %14)
  %18 = load i32, ptr @hf_ldp_tlv_fr_label_dlci, align 4
  %19 = add i32 %2, 1
  %20 = tail call ptr @proto_tree_add_item(ptr noundef %10, i32 noundef %18, ptr noundef %0, i32 noundef %19, i32 noundef 3, i32 noundef 0)
  br label %21

21:                                               ; preds = %8, %6
  ret void
}